; Function Attrs: mustprogress nofree norecurse nosync nounwind willreturn memory(read, argmem: write, inaccessiblemem: none) uwtable
define dso_local noundef i32 @onig_initialize_match_param(ptr noundef writeonly captures(none) initializes((0, 4), (8, 52), (56, 68)) %0) local_unnamed_addr #12 {
  %2 = load i32, ptr @MatchStackLimit, align 4, !tbaa !24
  store i32 %2, ptr %0, align 8, !tbaa !4
  %3 = load i64, ptr @RetryLimitInMatch, align 8, !tbaa !39
  %4 = getelementptr inbounds nuw i8, ptr %0, i64 8
  store i64 %3, ptr %4, align 8, !tbaa !11
  %5 = load i64, ptr @RetryLimitInSearch, align 8, !tbaa !39
  %6 = getelementptr inbounds nuw i8, ptr %0, i64 16
  store i64 %5, ptr %6, align 8, !tbaa !12
  %7 = getelementptr inbounds nuw i8, ptr %0, i64 24
  store ptr null, ptr %7, align 8, !tbaa !15
  %8 = load ptr, ptr @DefaultProgressCallout, align 8, !tbaa !20
  %9 = getelementptr inbounds nuw i8, ptr %0, i64 32
  store ptr %8, ptr %9, align 8, !tbaa !13
  %10 = load ptr, ptr @DefaultRetractionCallout, align 8, !tbaa !20
  %11 = getelementptr inbounds nuw i8, ptr %0, i64 40
  store ptr %10, ptr %11, align 8, !tbaa !14
  %12 = getelementptr inbounds nuw i8, ptr %0, i64 48
  store i32 0, ptr %12, align 8, !tbaa !40
  %13 = getelementptr inbounds nuw i8, ptr %0, i64 56
  store ptr null, ptr %13, align 8, !tbaa !41
  %14 = getelementptr inbounds nuw i8, ptr %0, i64 64
  store i32 0, ptr %14, align 8, !tbaa !42
  ret i32 0
}